; Function Attrs: mustprogress uwtable
define internal void @_ZL20DOCTEST_ANON_FUNC_82v() #4 personality ptr @__gxx_personality_v0 {
  %1 = alloca %struct.lua_CompileOptions, align 8
  %2 = alloca %"class.std::unique_ptr", align 8
  %3 = getelementptr inbounds i8, ptr %1, i64 8
  call void @llvm.memset.p0.i64(ptr noundef nonnull align 8 dereferenceable(48) %3, i8 0, i64 48, i1 false), !alias.scope !17
  %4 = getelementptr inbounds i8, ptr %1, i64 4
  store i32 1, ptr %3, align 8, !alias.scope !17
  %5 = getelementptr inbounds i8, ptr %1, i64 24
  store ptr @.str.53, ptr %5, align 8, !alias.scope !17
  %6 = getelementptr inbounds i8, ptr %1, i64 32
  store ptr @.str.53, ptr %6, align 8, !alias.scope !17
  store i32 0, ptr %4, align 4
  store i32 0, ptr %1, align 8
  call fastcc void @_ZL14runConformancePKcPFvP9lua_StateES4_S2_P18lua_CompileOptionsbPN4Luau7CodeGen18CompilationOptionsE(ptr dead_on_unwind noalias nonnull writable align 8 %2, ptr noundef nonnull @.str.310, ptr noundef null, ptr noundef nonnull @"_ZZL20DOCTEST_ANON_FUNC_82vEN3$_08__invokeEP9lua_State", ptr noundef null, ptr noundef nonnull %1, i1 noundef zeroext false, ptr noundef null)
  %7 = getelementptr inbounds i8, ptr %2, i64 8
  %8 = load ptr, ptr %7, align 8
  %.not.i = icmp eq ptr %8, null
  br i1 %.not.i, label %_ZNSt10unique_ptrI9lua_StatePFvPS0_EED2Ev.exit, label %9

9:                                                ; preds = %0
  %10 = load ptr, ptr %2, align 8
  invoke void %10(ptr noundef nonnull %8)
          to label %_ZNSt10unique_ptrI9lua_StatePFvPS0_EED2Ev.exit unwind label %11

11:                                               ; preds = %9
  %12 = landingpad { ptr, i32 }
          catch ptr null
  %13 = extractvalue { ptr, i32 } %12, 0
  call void @__clang_call_terminate(ptr %13) #36
  unreachable

_ZNSt10unique_ptrI9lua_StatePFvPS0_EED2Ev.exit:   ; preds = %0, %9
  ret void
}